(dp0
S'circumference'
p1
F628.3185307180107
sS'turns_max'
p2
I1000
sS'turn'
p3
I999
sS'lostbunch_file'
p4
S'input/lostbunch'
p5
sS'mainbunch_file'
p6
S'input/mainbunch.mat'
p7
sS'turns_update'
p8
(lp9
I-1
aI49
aI99
aI149
aI199
aI249
aI299
aI349
aI399
aI449
aI499
aI549
aI599
aI649
aI699
aI749
aI799
aI849
aI899
aI949
aI999
asS'turns_print'
p10
(lp11
I-1
aI49
aI99
aI149
aI199
aI249
aI299
aI349
aI399
aI449
aI499
aI549
aI599
aI649
aI699
aI749
aI799
aI849
aI899
aI949
aI999
as.